target datalayout = "e-m:e-p270:32:32-p271:32:32-p272:64:64-i64:64-i128:128-f80:128-n8:16:32:64-S128"
target triple = "x86_64-pc-linux-gnu"

%struct._packet_info = type { ptr, ptr, i32, i32, %struct.nstime_t, %struct.nstime_t, %struct.nstime_t, i32, ptr, ptr, ptr, ptr, %struct._address, %struct._address, %struct._address, %struct._address, %struct._address, %struct._address, i32, ptr, i32, %struct.anon, i32, i32, i32, i32, ptr, i32, ptr, ptr, i16, i16, i32, i32, i16, i32, i32, ptr, ptr, ptr, i8, i8, i16, i16, i16, i32, i16, i16, ptr, ptr, ptr, ptr, ptr, i32 }
%struct.nstime_t = type { i64, i32 }
%struct._address = type { i32, i32, ptr, ptr }
%struct.anon = type { i8, [3 x i8] }

@proto_wifi_dpp = internal global i32 0, align 4
@ett_wifi_dpp_pa = internal global i32 0, align 4
@ett_wifi_dpp_attributes = internal global i32 0, align 4
@.str.1 = private unnamed_addr constant [15 x i8] c"DPP Attributes\00", align 1
@.str.2 = private unnamed_addr constant [9 x i8] c"wifi_dpp\00", align 1
@.str.3 = private unnamed_addr constant [11 x i8] c", DPP - %s\00", align 1
@.str.4 = private unnamed_addr constant [13 x i8] c"Unknown (%u)\00", align 1
@.str.5 = private unnamed_addr constant [5 x i8] c": %s\00", align 1
@hf_wifi_dpp_crypto_suite = internal global i32 0, align 4
@hf_wifi_dpp_public_action_subtype = internal global i32 0, align 4

; Function Attrs: nounwind uwtable
define hidden i32 @dissect_wifi_dpp_public_action(ptr noundef %0, ptr noundef %1, ptr noundef %2, ptr noundef %3) #0 {
  %5 = alloca ptr, align 8
  %6 = alloca ptr, align 8
  %7 = alloca ptr, align 8
  %8 = alloca ptr, align 8
  %9 = alloca i8, align 1
  %10 = alloca i32, align 4
  %11 = alloca ptr, align 8
  %12 = alloca ptr, align 8
  %13 = alloca ptr, align 8
  %14 = alloca i16, align 2
  %15 = alloca i32, align 4
  store ptr %0, ptr %5, align 8
  store ptr %1, ptr %6, align 8
  store ptr %2, ptr %7, align 8
  store ptr %3, ptr %8, align 8
  store i32 0, ptr %15, align 4
  %16 = load ptr, ptr %6, align 8
  %17 = getelementptr inbounds %struct._packet_info, ptr %16, i32 0, i32 1
  %18 = load ptr, ptr %17, align 8
  call void @col_set_str(ptr noundef %18, i32 noundef 34, ptr noundef @.str.2)
  %19 = load ptr, ptr %5, align 8
  %20 = load i32, ptr %15, align 4
  %21 = add i32 %20, 1
  %22 = call zeroext i8 @tvb_get_guint8(ptr noundef %19, i32 noundef %21)
  store i8 %22, ptr %9, align 1
  %23 = load ptr, ptr %6, align 8
  %24 = getelementptr inbounds %struct._packet_info, ptr %23, i32 0, i32 1
  %25 = load ptr, ptr %24, align 8
  %26 = load i8, ptr %9, align 1
  %27 = zext i8 %26 to i32
  %28 = call ptr @val_to_str(i32 noundef %27, ptr noundef @dpp_public_action_subtypes, ptr noundef @.str.4)
  call void (ptr, i32, ptr, ...) @col_append_fstr(ptr noundef %25, i32 noundef 25, ptr noundef @.str.3, ptr noundef %28)
  %29 = load ptr, ptr %5, align 8
  %30 = load i32, ptr %15, align 4
  %31 = call i32 @tvb_reported_length_remaining(ptr noundef %29, i32 noundef %30)
  store i32 %31, ptr %10, align 4
  %32 = load ptr, ptr %7, align 8
  %33 = load i32, ptr @proto_wifi_dpp, align 4
  %34 = load ptr, ptr %5, align 8
  %35 = load i32, ptr %15, align 4
  %36 = call ptr @proto_tree_add_item(ptr noundef %32, i32 noundef %33, ptr noundef %34, i32 noundef %35, i32 noundef -1, i32 noundef 0)
  store ptr %36, ptr %11, align 8
  %37 = load ptr, ptr %11, align 8
  %38 = load i32, ptr @ett_wifi_dpp_pa, align 4
  %39 = call ptr @proto_item_add_subtree(ptr noundef %37, i32 noundef %38)
  store ptr %39, ptr %12, align 8
  %40 = load ptr, ptr %11, align 8
  %41 = load i8, ptr %9, align 1
  %42 = zext i8 %41 to i32
  %43 = call ptr @val_to_str(i32 noundef %42, ptr noundef @dpp_public_action_subtypes, ptr noundef @.str.4)
  call void (ptr, ptr, ...) @proto_item_append_text(ptr noundef %40, ptr noundef @.str.5, ptr noundef %43)
  %44 = load ptr, ptr %12, align 8
  %45 = load i32, ptr @hf_wifi_dpp_crypto_suite, align 4
  %46 = load ptr, ptr %5, align 8
  %47 = load i32, ptr %15, align 4
  %48 = call ptr @proto_tree_add_item(ptr noundef %44, i32 noundef %45, ptr noundef %46, i32 noundef %47, i32 noundef 1, i32 noundef -2147483648)
  %49 = load i32, ptr %15, align 4
  %50 = add i32 %49, 1
  store i32 %50, ptr %15, align 4
  %51 = load i32, ptr %10, align 4
  %52 = add i32 %51, -1
  store i32 %52, ptr %10, align 4
  %53 = load ptr, ptr %12, align 8
  %54 = load i32, ptr @hf_wifi_dpp_public_action_subtype, align 4
  %55 = load ptr, ptr %5, align 8
  %56 = load i32, ptr %15, align 4
  %57 = call ptr @proto_tree_add_item(ptr noundef %53, i32 noundef %54, ptr noundef %55, i32 noundef %56, i32 noundef 1, i32 noundef -2147483648)
  %58 = load i32, ptr %15, align 4
  %59 = add i32 %58, 1
  store i32 %59, ptr %15, align 4
  %60 = load i32, ptr %10, align 4
  %61 = add i32 %60, -1
  store i32 %61, ptr %10, align 4
  %62 = load i32, ptr %10, align 4
  %63 = icmp ne i32 %62, 0
  br i1 %63, label %64, label %81

64:                                               ; preds = %4
  %65 = load ptr, ptr %12, align 8
  %66 = load ptr, ptr %5, align 8
  %67 = load i32, ptr %15, align 4
  %68 = load i32, ptr %10, align 4
  %69 = load i32, ptr @ett_wifi_dpp_attributes, align 4
  %70 = call ptr (ptr, ptr, i32, i32, i32, ptr, ptr, ...) @proto_tree_add_subtree_format(ptr noundef %65, ptr noundef %66, i32 noundef %67, i32 noundef %68, i32 noundef %69, ptr noundef null, ptr noundef @.str.1)
  store ptr %70, ptr %13, align 8
  %71 = load ptr, ptr %6, align 8
  %72 = load ptr, ptr %13, align 8
  %73 = load ptr, ptr %5, align 8
  %74 = load i32, ptr %15, align 4
  %75 = call i32 @dissect_wifi_dpp_attributes(ptr noundef %71, ptr noundef %72, ptr noundef %73, i32 noundef %74)
  %76 = trunc i32 %75 to i16
  store i16 %76, ptr %14, align 2
  %77 = load i16, ptr %14, align 2
  %78 = zext i16 %77 to i32
  %79 = load i32, ptr %15, align 4
  %80 = add i32 %79, %78
  store i32 %80, ptr %15, align 4
  br label %81

81:                                               ; preds = %64, %4
  %82 = load i32, ptr %15, align 4
  ret i32 %82
}