; Function Attrs: nounwind uwtable
define hidden range(i32 2, 65538) i32 @dissect_wifi_dpp_public_action(ptr noundef %0, ptr noundef readonly captures(none) %1, ptr noundef %2, ptr readnone captures(none) %3) #0 {
  %5 = getelementptr inbounds nuw i8, ptr %1, i64 8
  %6 = load ptr, ptr %5, align 8
  tail call void @col_set_str(ptr noundef %6, i32 noundef 34, ptr noundef nonnull @.str.2) #2
  %7 = tail call zeroext i8 @tvb_get_guint8(ptr noundef %0, i32 noundef 1) #2
  %8 = load ptr, ptr %5, align 8
  %9 = zext i8 %7 to i32
  %10 = tail call ptr @val_to_str(i32 noundef %9, ptr noundef nonnull @dpp_public_action_subtypes, ptr noundef nonnull @.str.4) #2
  tail call void (ptr, i32, ptr, ...) @col_append_fstr(ptr noundef %8, i32 noundef 25, ptr noundef nonnull @.str.3, ptr noundef %10) #2
  %11 = tail call i32 @tvb_reported_length_remaining(ptr noundef %0, i32 noundef 0) #2
  %12 = load i32, ptr @proto_wifi_dpp, align 4
  %13 = tail call ptr @proto_tree_add_item(ptr noundef %2, i32 noundef %12, ptr noundef %0, i32 noundef 0, i32 noundef -1, i32 noundef 0) #2
  %14 = load i32, ptr @ett_wifi_dpp_pa, align 4
  %15 = tail call ptr @proto_item_add_subtree(ptr noundef %13, i32 noundef %14) #2
  %16 = tail call ptr @val_to_str(i32 noundef %9, ptr noundef nonnull @dpp_public_action_subtypes, ptr noundef nonnull @.str.4) #2
  tail call void (ptr, ptr, ...) @proto_item_append_text(ptr noundef %13, ptr noundef nonnull @.str.5, ptr noundef %16) #2
  %17 = load i32, ptr @hf_wifi_dpp_crypto_suite, align 4
  %18 = tail call ptr @proto_tree_add_item(ptr noundef %15, i32 noundef %17, ptr noundef %0, i32 noundef 0, i32 noundef 1, i32 noundef -2147483648) #2
  %19 = load i32, ptr @hf_wifi_dpp_public_action_subtype, align 4
  %20 = tail call ptr @proto_tree_add_item(ptr noundef %15, i32 noundef %19, ptr noundef %0, i32 noundef 1, i32 noundef 1, i32 noundef -2147483648) #2
  %21 = add i32 %11, -2
  %.not = icmp eq i32 %21, 0
  br i1 %.not, label %28, label %22

22:                                               ; preds = %4
  %23 = load i32, ptr @ett_wifi_dpp_attributes, align 4
  %24 = tail call ptr (ptr, ptr, i32, i32, i32, ptr, ptr, ...) @proto_tree_add_subtree_format(ptr noundef %15, ptr noundef %0, i32 noundef 2, i32 noundef %21, i32 noundef %23, ptr noundef null, ptr noundef nonnull @.str.1) #2
  %25 = tail call fastcc i32 @dissect_wifi_dpp_attributes(ptr noundef %24, ptr noundef %0, i32 noundef 2)
  %26 = and i32 %25, 65535
  %27 = add nuw nsw i32 %26, 2
  br label %28

28:                                               ; preds = %22, %4
  %.0 = phi i32 [ %27, %22 ], [ 2, %4 ]
  ret i32 %.0
}